target datalayout = "e-m:e-p270:32:32-p271:32:32-p272:64:64-i64:64-i128:128-f80:128-n8:16:32:64-S128"
target triple = "x86_64-pc-linux-gnu"

%struct.TclStubs = type { i32, ptr, ptr, ptr, ptr, ptr, ptr, ptr, ptr, ptr, ptr, ptr, ptr, ptr, ptr, ptr, ptr, ptr, ptr, ptr, ptr, ptr, ptr, ptr, ptr, ptr, ptr, ptr, ptr, ptr, ptr, ptr, ptr, ptr, ptr, ptr, ptr, ptr, ptr, ptr, ptr, ptr, ptr, ptr, ptr, ptr, ptr, ptr, ptr, ptr, ptr, ptr, ptr, ptr, ptr, ptr, ptr, ptr, ptr, ptr, ptr, ptr, ptr, ptr, ptr, ptr, ptr, ptr, ptr, ptr, ptr, ptr, ptr, ptr, ptr, ptr, ptr, ptr, ptr, ptr, ptr, ptr, ptr, ptr, ptr, ptr, ptr, ptr, ptr, ptr, ptr, ptr, ptr, ptr, ptr, ptr, ptr, ptr, ptr, ptr, ptr, ptr, ptr, ptr, ptr, ptr, ptr, ptr, ptr, ptr, ptr, ptr, ptr, ptr, ptr, ptr, ptr, ptr, ptr, ptr, ptr, ptr, ptr, ptr, ptr, ptr, ptr, ptr, ptr, ptr, ptr, ptr, ptr, ptr, ptr, ptr, ptr, ptr, ptr, ptr, ptr, ptr, ptr, ptr, ptr, ptr, ptr, ptr, ptr, ptr, ptr, ptr, ptr, ptr, ptr, ptr, ptr, ptr, ptr, ptr, ptr, ptr, ptr, ptr, ptr, ptr, ptr, ptr, ptr, ptr, ptr, ptr, ptr, ptr, ptr, ptr, ptr, ptr, ptr, ptr, ptr, ptr, ptr, ptr, ptr, ptr, ptr, ptr, ptr, ptr, ptr, ptr, ptr, ptr, ptr, ptr, ptr, ptr, ptr, ptr, ptr, ptr, ptr, ptr, ptr, ptr, ptr, ptr, ptr, ptr, ptr, ptr, ptr, ptr, ptr, ptr, ptr, ptr, ptr, ptr, ptr, ptr, ptr, ptr, ptr, ptr, ptr, ptr, ptr, ptr, ptr, ptr, ptr, ptr, ptr, ptr, ptr, ptr, ptr, ptr, ptr, ptr, ptr, ptr, ptr, ptr, ptr, ptr, ptr, ptr, ptr, ptr, ptr, ptr, ptr, ptr, ptr, ptr, ptr, ptr, ptr, ptr, ptr, ptr, ptr, ptr, ptr, ptr, ptr, ptr, ptr, ptr, ptr, ptr, ptr, ptr, ptr, ptr, ptr, ptr, ptr, ptr, ptr, ptr, ptr, ptr, ptr, ptr, ptr, ptr, ptr, ptr, ptr, ptr, ptr, ptr, ptr, ptr, ptr, ptr, ptr, ptr, ptr, ptr, ptr, ptr, ptr, ptr, ptr, ptr, ptr, ptr, ptr, ptr, ptr, ptr, ptr, ptr, ptr, ptr, ptr, ptr, ptr, ptr, ptr, ptr, ptr, ptr, ptr, ptr, ptr, ptr, ptr, ptr, ptr, ptr, ptr, ptr, ptr, ptr, ptr, ptr, ptr, ptr, ptr, ptr, ptr, ptr, ptr, ptr, ptr, ptr, ptr, ptr, ptr, ptr, ptr, ptr, ptr, ptr, ptr, ptr, ptr, ptr, ptr, ptr, ptr, ptr, ptr, ptr, ptr, ptr, ptr, ptr, ptr, ptr, ptr, ptr, ptr, ptr, ptr, ptr, ptr, ptr, ptr, ptr, ptr, ptr, ptr, ptr, ptr, ptr, ptr, ptr, ptr, ptr, ptr, ptr, ptr, ptr, ptr, ptr, ptr, ptr, ptr, ptr, ptr, ptr, ptr, ptr, ptr, ptr, ptr, ptr, ptr, ptr, ptr, ptr, ptr, ptr, ptr, ptr, ptr, ptr, ptr, ptr, ptr, ptr, ptr, ptr, ptr, ptr, ptr, ptr, ptr, ptr, ptr, ptr, ptr, ptr, ptr, ptr, ptr, ptr, ptr, ptr, ptr, ptr, ptr, ptr, ptr, ptr, ptr, ptr, ptr, ptr, ptr, ptr, ptr, ptr, ptr, ptr, ptr, ptr, ptr, ptr, ptr, ptr, ptr, ptr, ptr, ptr, ptr, ptr, ptr, ptr, ptr, ptr, ptr, ptr, ptr, ptr, ptr, ptr, ptr, ptr, ptr, ptr, ptr, ptr, ptr, ptr, ptr, ptr, ptr, ptr, ptr, ptr, ptr, ptr, ptr, ptr, ptr, ptr, ptr, ptr, ptr, ptr, ptr, ptr, ptr, ptr, ptr, ptr, ptr, ptr, ptr, ptr, ptr, ptr, ptr, ptr, ptr, ptr, ptr, ptr, ptr, ptr, ptr, ptr, ptr, ptr, ptr, ptr, ptr, ptr, ptr, ptr, ptr, ptr, ptr, ptr, ptr, ptr, ptr, ptr, ptr, ptr, ptr, ptr, ptr, ptr, ptr, ptr, ptr, ptr, ptr, ptr, ptr, ptr, ptr, ptr, ptr, ptr, ptr, ptr, ptr, ptr, ptr, ptr, ptr, ptr, ptr, ptr, ptr, ptr, ptr, ptr, ptr, ptr, ptr, ptr, ptr, ptr, ptr, ptr, ptr, ptr, ptr, ptr, ptr, ptr, ptr, ptr, ptr, ptr, ptr, ptr, ptr, ptr, ptr, ptr, ptr, ptr, ptr, ptr, ptr, ptr, ptr, ptr, ptr, ptr, ptr, ptr, ptr, ptr, ptr, ptr, ptr, ptr, ptr, ptr, ptr, ptr, ptr, ptr, ptr, ptr, ptr, ptr, ptr, ptr, ptr, ptr, ptr, ptr, ptr, ptr, ptr, ptr, ptr, ptr, ptr, ptr, ptr, ptr, ptr, ptr, ptr, ptr, ptr, ptr, ptr, ptr, ptr, ptr, ptr, ptr, ptr, ptr, ptr, ptr, ptr }
%struct.SqliteDb = type { ptr, ptr, ptr, ptr, ptr, ptr, ptr, ptr, ptr, ptr, i32, ptr, ptr, ptr, ptr, ptr, ptr, ptr, ptr, i32, ptr, ptr, ptr, i32, i32, ptr, i32, i32, i32, i32, i32, i32, i32 }
%struct.IncrblobChannel = type { ptr, ptr, i64, i32, ptr, ptr, ptr }

@tclStubsPtr = external global ptr, align 8

; Function Attrs: nounwind uwtable
define internal i32 @incrblobClose2(ptr noundef %0, ptr noundef %1, i32 noundef %2) #0 {
  %4 = alloca i32, align 4
  %5 = alloca ptr, align 8
  %6 = alloca ptr, align 8
  %7 = alloca i32, align 4
  %8 = alloca ptr, align 8
  %9 = alloca i32, align 4
  %10 = alloca ptr, align 8
  %11 = alloca i32, align 4
  store ptr %0, ptr %5, align 8, !tbaa !15
  store ptr %1, ptr %6, align 8, !tbaa !3
  store i32 %2, ptr %7, align 4, !tbaa !8
  call void @llvm.lifetime.start.p0(i64 8, ptr %8) #10
  %12 = load ptr, ptr %5, align 8, !tbaa !15
  store ptr %12, ptr %8, align 8, !tbaa !198
  call void @llvm.lifetime.start.p0(i64 4, ptr %9) #10
  call void @llvm.lifetime.start.p0(i64 8, ptr %10) #10
  %13 = load ptr, ptr %8, align 8, !tbaa !198
  %14 = getelementptr inbounds nuw %struct.IncrblobChannel, ptr %13, i32 0, i32 1
  %15 = load ptr, ptr %14, align 8, !tbaa !211
  %16 = getelementptr inbounds nuw %struct.SqliteDb, ptr %15, i32 0, i32 0
  %17 = load ptr, ptr %16, align 8, !tbaa !34
  store ptr %17, ptr %10, align 8, !tbaa !53
  %18 = load i32, ptr %7, align 4, !tbaa !8
  %19 = icmp ne i32 %18, 0
  br i1 %19, label %20, label %26

20:                                               ; preds = %3
  %21 = load i32, ptr %7, align 4, !tbaa !8
  %22 = load ptr, ptr %8, align 8, !tbaa !198
  %23 = getelementptr inbounds nuw %struct.IncrblobChannel, ptr %22, i32 0, i32 3
  %24 = load i32, ptr %23, align 8, !tbaa !204
  %25 = or i32 %24, %21
  store i32 %25, ptr %23, align 8, !tbaa !204
  store i32 0, ptr %4, align 4
  store i32 1, ptr %11, align 4
  br label %87

26:                                               ; preds = %3
  %27 = load ptr, ptr %8, align 8, !tbaa !198
  %28 = getelementptr inbounds nuw %struct.IncrblobChannel, ptr %27, i32 0, i32 0
  %29 = load ptr, ptr %28, align 8, !tbaa !201
  %30 = call i32 @sqlite3_blob_close(ptr noundef %29)
  store i32 %30, ptr %9, align 4, !tbaa !8
  %31 = load ptr, ptr %8, align 8, !tbaa !198
  %32 = getelementptr inbounds nuw %struct.IncrblobChannel, ptr %31, i32 0, i32 5
  %33 = load ptr, ptr %32, align 8, !tbaa !209
  %34 = icmp ne ptr %33, null
  br i1 %34, label %35, label %43

35:                                               ; preds = %26
  %36 = load ptr, ptr %8, align 8, !tbaa !198
  %37 = getelementptr inbounds nuw %struct.IncrblobChannel, ptr %36, i32 0, i32 6
  %38 = load ptr, ptr %37, align 8, !tbaa !210
  %39 = load ptr, ptr %8, align 8, !tbaa !198
  %40 = getelementptr inbounds nuw %struct.IncrblobChannel, ptr %39, i32 0, i32 5
  %41 = load ptr, ptr %40, align 8, !tbaa !209
  %42 = getelementptr inbounds nuw %struct.IncrblobChannel, ptr %41, i32 0, i32 6
  store ptr %38, ptr %42, align 8, !tbaa !210
  br label %43

43:                                               ; preds = %35, %26
  %44 = load ptr, ptr %8, align 8, !tbaa !198
  %45 = getelementptr inbounds nuw %struct.IncrblobChannel, ptr %44, i32 0, i32 6
  %46 = load ptr, ptr %45, align 8, !tbaa !210
  %47 = icmp ne ptr %46, null
  br i1 %47, label %48, label %56

48:                                               ; preds = %43
  %49 = load ptr, ptr %8, align 8, !tbaa !198
  %50 = getelementptr inbounds nuw %struct.IncrblobChannel, ptr %49, i32 0, i32 5
  %51 = load ptr, ptr %50, align 8, !tbaa !209
  %52 = load ptr, ptr %8, align 8, !tbaa !198
  %53 = getelementptr inbounds nuw %struct.IncrblobChannel, ptr %52, i32 0, i32 6
  %54 = load ptr, ptr %53, align 8, !tbaa !210
  %55 = getelementptr inbounds nuw %struct.IncrblobChannel, ptr %54, i32 0, i32 5
  store ptr %51, ptr %55, align 8, !tbaa !209
  br label %56

56:                                               ; preds = %48, %43
  %57 = load ptr, ptr %8, align 8, !tbaa !198
  %58 = getelementptr inbounds nuw %struct.IncrblobChannel, ptr %57, i32 0, i32 1
  %59 = load ptr, ptr %58, align 8, !tbaa !211
  %60 = getelementptr inbounds nuw %struct.SqliteDb, ptr %59, i32 0, i32 25
  %61 = load ptr, ptr %60, align 8, !tbaa !208
  %62 = load ptr, ptr %8, align 8, !tbaa !198
  %63 = icmp eq ptr %61, %62
  br i1 %63, label %64, label %72

64:                                               ; preds = %56
  %65 = load ptr, ptr %8, align 8, !tbaa !198
  %66 = getelementptr inbounds nuw %struct.IncrblobChannel, ptr %65, i32 0, i32 5
  %67 = load ptr, ptr %66, align 8, !tbaa !209
  %68 = load ptr, ptr %8, align 8, !tbaa !198
  %69 = getelementptr inbounds nuw %struct.IncrblobChannel, ptr %68, i32 0, i32 1
  %70 = load ptr, ptr %69, align 8, !tbaa !211
  %71 = getelementptr inbounds nuw %struct.SqliteDb, ptr %70, i32 0, i32 25
  store ptr %67, ptr %71, align 8, !tbaa !208
  br label %72

72:                                               ; preds = %64, %56
  %73 = load ptr, ptr @tclStubsPtr, align 8, !tbaa !10
  %74 = getelementptr inbounds nuw %struct.TclStubs, ptr %73, i32 0, i32 6
  %75 = load ptr, ptr %74, align 8, !tbaa !42
  %76 = load ptr, ptr %8, align 8, !tbaa !198
  call void %75(ptr noundef %76)
  %77 = load i32, ptr %9, align 4, !tbaa !8
  %78 = icmp ne i32 %77, 0
  br i1 %78, label %79, label %86

79:                                               ; preds = %72
  %80 = load ptr, ptr @tclStubsPtr, align 8, !tbaa !10
  %81 = getelementptr inbounds nuw %struct.TclStubs, ptr %80, i32 0, i32 234
  %82 = load ptr, ptr %81, align 8, !tbaa !41
  %83 = load ptr, ptr %6, align 8, !tbaa !3
  %84 = load ptr, ptr %10, align 8, !tbaa !53
  %85 = call ptr @sqlite3_errmsg(ptr noundef %84)
  call void %82(ptr noundef %83, ptr noundef %85, ptr noundef inttoptr (i64 1 to ptr))
  store i32 1, ptr %4, align 4
  store i32 1, ptr %11, align 4
  br label %87

86:                                               ; preds = %72
  store i32 0, ptr %4, align 4
  store i32 1, ptr %11, align 4
  br label %87

87:                                               ; preds = %86, %79, %20
  call void @llvm.lifetime.end.p0(i64 8, ptr %10) #10
  call void @llvm.lifetime.end.p0(i64 4, ptr %9) #10
  call void @llvm.lifetime.end.p0(i64 8, ptr %8) #10
  %88 = load i32, ptr %4, align 4
  ret i32 %88
}