; Function Attrs: nounwind uwtable
define internal range(i32 0, 2) i32 @incrblobClose2(ptr noundef %0, ptr noundef %1, i32 noundef %2) #0 {
  %4 = getelementptr inbounds nuw i8, ptr %0, i64 8
  %5 = load ptr, ptr %4, align 8, !tbaa !199
  %6 = load ptr, ptr %5, align 8, !tbaa !26
  %.not = icmp eq i32 %2, 0
  br i1 %.not, label %11, label %7

7:                                                ; preds = %3
  %8 = getelementptr inbounds nuw i8, ptr %0, i64 24
  %9 = load i32, ptr %8, align 8, !tbaa !192
  %10 = or i32 %9, %2
  store i32 %10, ptr %8, align 8, !tbaa !192
  br label %36

11:                                               ; preds = %3
  %12 = load ptr, ptr %0, align 8, !tbaa !189
  %13 = tail call i32 @sqlite3_blob_close(ptr noundef %12) #14
  %14 = getelementptr inbounds nuw i8, ptr %0, i64 40
  %15 = load ptr, ptr %14, align 8, !tbaa !197
  %.not23 = icmp eq ptr %15, null
  %.phi.trans.insert = getelementptr inbounds nuw i8, ptr %0, i64 48
  %.pre = load ptr, ptr %.phi.trans.insert, align 8, !tbaa !198
  br i1 %.not23, label %._crit_edge, label %16

16:                                               ; preds = %11
  %17 = getelementptr inbounds nuw i8, ptr %15, i64 48
  store ptr %.pre, ptr %17, align 8, !tbaa !198
  br label %._crit_edge

._crit_edge:                                      ; preds = %11, %16
  %.not24 = icmp eq ptr %.pre, null
  br i1 %.not24, label %20, label %18

18:                                               ; preds = %._crit_edge
  %19 = getelementptr inbounds nuw i8, ptr %.pre, i64 40
  store ptr %15, ptr %19, align 8, !tbaa !197
  br label %20

20:                                               ; preds = %18, %._crit_edge
  %21 = load ptr, ptr %4, align 8, !tbaa !199
  %22 = getelementptr inbounds nuw i8, ptr %21, i64 192
  %23 = load ptr, ptr %22, align 8, !tbaa !196
  %24 = icmp eq ptr %23, %0
  br i1 %24, label %25, label %27

25:                                               ; preds = %20
  %26 = load ptr, ptr %14, align 8, !tbaa !197
  store ptr %26, ptr %22, align 8, !tbaa !196
  br label %27

27:                                               ; preds = %25, %20
  %28 = load ptr, ptr @tclStubsPtr, align 8, !tbaa !3
  %29 = getelementptr inbounds nuw i8, ptr %28, i64 48
  %30 = load ptr, ptr %29, align 8, !tbaa !36
  tail call void %30(ptr noundef nonnull %0) #14
  %.not25 = icmp eq i32 %13, 0
  br i1 %.not25, label %36, label %31

31:                                               ; preds = %27
  %32 = load ptr, ptr @tclStubsPtr, align 8, !tbaa !3
  %33 = getelementptr inbounds nuw i8, ptr %32, i64 1872
  %34 = load ptr, ptr %33, align 8, !tbaa !35
  %35 = tail call ptr @sqlite3_errmsg(ptr noundef %6) #14
  tail call void %34(ptr noundef %1, ptr noundef %35, ptr noundef nonnull inttoptr (i64 1 to ptr)) #14
  br label %36

36:                                               ; preds = %27, %31, %7
  %.0 = phi i32 [ 0, %7 ], [ 1, %31 ], [ 0, %27 ]
  ret i32 %.0
}